target datalayout = "e-m:e-p270:32:32-p271:32:32-p272:64:64-i64:64-i128:128-f80:128-n8:16:32:64-S128"
target triple = "x86_64-pc-linux-gnu"

%struct.OutputPluginCallbacks = type { ptr, ptr, ptr, ptr, ptr, ptr, ptr, ptr, ptr, ptr, ptr, ptr, ptr, ptr, ptr, ptr, ptr, ptr, ptr, ptr, ptr }
%struct.LogicalDecodingContext = type { ptr, ptr, ptr, ptr, ptr, i8, %struct.OutputPluginCallbacks, %struct.OutputPluginOptions, ptr, ptr, ptr, ptr, ptr, ptr, ptr, i8, i8, i8, i8, i8, i64, i32, i8, i8 }
%struct.OutputPluginOptions = type { i32, i8 }
%struct.PGOutputData = type { ptr, ptr, ptr, i8, i32, ptr, ptr, i8, i8, i8, i8, i8 }
%struct.ReorderBufferTXN = type { i32, i32, i32, ptr, i64, i64, i64, ptr, i64, i16, i64, %union.anon, ptr, i64, %struct.dlist_node, ptr, i32, i64, i64, %struct.dlist_head, %struct.dlist_head, i64, ptr, ptr, %struct.dlist_head, i32, i32, ptr, %struct.dlist_node, %struct.dlist_node, %struct.pairingheap_node, i64, i64, ptr }
%union.anon = type { i64 }
%struct.dlist_head = type { %struct.dlist_node }
%struct.dlist_node = type { ptr, ptr }
%struct.pairingheap_node = type { ptr, ptr, ptr }
%struct.PGOutputTxnData = type { i8 }

; Function Attrs: nounwind uwtable
define internal void @pgoutput_message(ptr noundef %0, ptr noundef %1, i64 noundef %2, i1 noundef zeroext %3, ptr noundef %4, i64 noundef %5, ptr noundef %6) #0 {
  %8 = alloca ptr, align 8
  %9 = alloca ptr, align 8
  %10 = alloca i64, align 8
  %11 = alloca i8, align 1
  %12 = alloca ptr, align 8
  %13 = alloca i64, align 8
  %14 = alloca ptr, align 8
  %15 = alloca ptr, align 8
  %16 = alloca i32, align 4
  %17 = alloca i32, align 4
  %18 = alloca ptr, align 8
  store ptr %0, ptr %8, align 8
  store ptr %1, ptr %9, align 8
  store i64 %2, ptr %10, align 8
  %19 = zext i1 %3 to i8
  store i8 %19, ptr %11, align 1
  store ptr %4, ptr %12, align 8
  store i64 %5, ptr %13, align 8
  store ptr %6, ptr %14, align 8
  call void @llvm.lifetime.start.p0(i64 8, ptr %15) #10
  %20 = load ptr, ptr %8, align 8
  %21 = getelementptr inbounds nuw %struct.LogicalDecodingContext, ptr %20, i32 0, i32 13
  %22 = load ptr, ptr %21, align 8
  store ptr %22, ptr %15, align 8
  call void @llvm.lifetime.start.p0(i64 4, ptr %16) #10
  store i32 0, ptr %16, align 4
  %23 = load ptr, ptr %15, align 8
  %24 = getelementptr inbounds nuw %struct.PGOutputData, ptr %23, i32 0, i32 9
  %25 = load i8, ptr %24, align 2, !range !3, !noundef !4
  %26 = trunc i8 %25 to i1
  br i1 %26, label %28, label %27

27:                                               ; preds = %7
  store i32 1, ptr %17, align 4
  br label %68

28:                                               ; preds = %7
  %29 = load ptr, ptr %15, align 8
  %30 = getelementptr inbounds nuw %struct.PGOutputData, ptr %29, i32 0, i32 3
  %31 = load i8, ptr %30, align 8, !range !3, !noundef !4
  %32 = trunc i8 %31 to i1
  br i1 %32, label %33, label %37

33:                                               ; preds = %28
  %34 = load ptr, ptr %9, align 8
  %35 = getelementptr inbounds nuw %struct.ReorderBufferTXN, ptr %34, i32 0, i32 1
  %36 = load i32, ptr %35, align 4
  store i32 %36, ptr %16, align 4
  br label %37

37:                                               ; preds = %33, %28
  %38 = load i8, ptr %11, align 1, !range !3, !noundef !4
  %39 = trunc i8 %38 to i1
  br i1 %39, label %40, label %55

40:                                               ; preds = %37
  call void @llvm.lifetime.start.p0(i64 8, ptr %18) #10
  %41 = load ptr, ptr %9, align 8
  %42 = getelementptr inbounds nuw %struct.ReorderBufferTXN, ptr %41, i32 0, i32 33
  %43 = load ptr, ptr %42, align 8
  store ptr %43, ptr %18, align 8
  %44 = load ptr, ptr %18, align 8
  %45 = icmp ne ptr %44, null
  br i1 %45, label %46, label %54

46:                                               ; preds = %40
  %47 = load ptr, ptr %18, align 8
  %48 = getelementptr inbounds nuw %struct.PGOutputTxnData, ptr %47, i32 0, i32 0
  %49 = load i8, ptr %48, align 1, !range !3, !noundef !4
  %50 = trunc i8 %49 to i1
  br i1 %50, label %54, label %51

51:                                               ; preds = %46
  %52 = load ptr, ptr %8, align 8
  %53 = load ptr, ptr %9, align 8
  call void @pgoutput_send_begin(ptr noundef %52, ptr noundef %53)
  br label %54

54:                                               ; preds = %51, %46, %40
  call void @llvm.lifetime.end.p0(i64 8, ptr %18) #10
  br label %55

55:                                               ; preds = %54, %37
  %56 = load ptr, ptr %8, align 8
  call void @OutputPluginPrepareWrite(ptr noundef %56, i1 noundef zeroext true)
  %57 = load ptr, ptr %8, align 8
  %58 = getelementptr inbounds nuw %struct.LogicalDecodingContext, ptr %57, i32 0, i32 12
  %59 = load ptr, ptr %58, align 8
  %60 = load i32, ptr %16, align 4
  %61 = load i64, ptr %10, align 8
  %62 = load i8, ptr %11, align 1, !range !3, !noundef !4
  %63 = trunc i8 %62 to i1
  %64 = load ptr, ptr %12, align 8
  %65 = load i64, ptr %13, align 8
  %66 = load ptr, ptr %14, align 8
  call void @logicalrep_write_message(ptr noundef %59, i32 noundef %60, i64 noundef %61, i1 noundef zeroext %63, ptr noundef %64, i64 noundef %65, ptr noundef %66)
  %67 = load ptr, ptr %8, align 8
  call void @OutputPluginWrite(ptr noundef %67, i1 noundef zeroext true)
  store i32 0, ptr %17, align 4
  br label %68

68:                                               ; preds = %55, %27
  call void @llvm.lifetime.end.p0(i64 4, ptr %16) #10
  call void @llvm.lifetime.end.p0(i64 8, ptr %15) #10
  %69 = load i32, ptr %17, align 4
  switch i32 %69, label %71 [
    i32 0, label %70
    i32 1, label %70
  ]

70:                                               ; preds = %68, %68
  ret void

71:                                               ; preds = %68
  unreachable
}