; Function Attrs: nounwind uwtable
define internal void @pgoutput_message(ptr noundef %0, ptr noundef %1, i64 noundef %2, i1 noundef zeroext %3, ptr noundef %4, i64 noundef %5, ptr noundef %6) #2 {
  %8 = getelementptr inbounds nuw i8, ptr %0, i64 264
  %9 = load ptr, ptr %8, align 8
  %10 = getelementptr inbounds nuw i8, ptr %9, i64 50
  %11 = load i8, ptr %10, align 2, !range !3, !noundef !4
  %12 = trunc nuw i8 %11 to i1
  br i1 %12, label %13, label %31

13:                                               ; preds = %7
  %14 = getelementptr inbounds nuw i8, ptr %9, i64 24
  %15 = load i8, ptr %14, align 8, !range !3, !noundef !4
  %16 = trunc nuw i8 %15 to i1
  br i1 %16, label %17, label %20

17:                                               ; preds = %13
  %18 = getelementptr inbounds nuw i8, ptr %1, i64 4
  %19 = load i32, ptr %18, align 4
  br label %20

20:                                               ; preds = %17, %13
  %.0 = phi i32 [ %19, %17 ], [ 0, %13 ]
  br i1 %3, label %21, label %28

21:                                               ; preds = %20
  %22 = getelementptr inbounds nuw i8, ptr %1, i64 312
  %23 = load ptr, ptr %22, align 8
  %.not = icmp eq ptr %23, null
  br i1 %.not, label %28, label %24

24:                                               ; preds = %21
  %25 = load i8, ptr %23, align 1, !range !3, !noundef !4
  %26 = trunc nuw i8 %25 to i1
  br i1 %26, label %28, label %27

27:                                               ; preds = %24
  tail call fastcc void @pgoutput_send_begin(ptr noundef nonnull %0, ptr noundef nonnull %1)
  br label %28

28:                                               ; preds = %21, %24, %27, %20
  tail call void @OutputPluginPrepareWrite(ptr noundef nonnull %0, i1 noundef zeroext true) #13
  %29 = getelementptr inbounds nuw i8, ptr %0, i64 256
  %30 = load ptr, ptr %29, align 8
  tail call void @logicalrep_write_message(ptr noundef %30, i32 noundef %.0, i64 noundef %2, i1 noundef zeroext %3, ptr noundef %4, i64 noundef %5, ptr noundef %6) #13
  tail call void @OutputPluginWrite(ptr noundef nonnull %0, i1 noundef zeroext true) #13
  br label %31

31:                                               ; preds = %7, %28
  ret void
}